; Function Attrs: mustprogress uwtable
define noundef range(i32 -1, 1) i32 @_ZN3zmq13socket_base_t17query_pipes_statsEv(ptr noundef nonnull align 8 dereferenceable(1825) %0) local_unnamed_addr #0 align 2 personality ptr @__gxx_personality_v0 {
  %2 = getelementptr inbounds nuw i8, ptr %0, i64 1776
  %3 = tail call i32 @pthread_mutex_lock(ptr noundef nonnull align 8 dereferenceable(44) %2) #36
  %.not.i.i = icmp eq i32 %3, 0
  br i1 %.not.i.i, label %_ZN3zmq13scoped_lock_tC2ERNS_7mutex_tE.exit, label %4, !prof !116

4:                                                ; preds = %1
  %5 = tail call ptr @strerror(i32 noundef %3) #36
  %6 = load ptr, ptr @stderr, align 8, !tbaa !100
  %7 = tail call i32 (ptr, ptr, ...) @fprintf(ptr noundef %6, ptr noundef nonnull @.str.9, ptr noundef %5, ptr noundef nonnull @.str.23, i32 noundef 109) #42
  %8 = load ptr, ptr @stderr, align 8, !tbaa !100
  %9 = tail call i32 @fflush(ptr noundef %8)
  tail call void @_ZN3zmq9zmq_abortEPKc(ptr noundef %5)
  br label %_ZN3zmq13scoped_lock_tC2ERNS_7mutex_tE.exit

_ZN3zmq13scoped_lock_tC2ERNS_7mutex_tE.exit:      ; preds = %1, %4
  %10 = getelementptr inbounds nuw i8, ptr %0, i64 1720
  %11 = load i64, ptr %10, align 8, !tbaa !118
  %12 = and i64 %11, 65536
  %.not.not = icmp eq i64 %12, 0
  br i1 %.not.not, label %13, label %15

13:                                               ; preds = %_ZN3zmq13scoped_lock_tC2ERNS_7mutex_tE.exit
  %14 = tail call ptr @__errno_location() #39
  store i32 22, ptr %14, align 4, !tbaa !17
  br label %15

15:                                               ; preds = %_ZN3zmq13scoped_lock_tC2ERNS_7mutex_tE.exit, %13
  %16 = tail call i32 @pthread_mutex_unlock(ptr noundef nonnull align 8 dereferenceable(44) %2) #36
  %.not.i.i9 = icmp eq i32 %16, 0
  br i1 %.not.i.i9, label %_ZN3zmq13scoped_lock_tD2Ev.exit, label %17, !prof !116

17:                                               ; preds = %15
  %18 = tail call ptr @strerror(i32 noundef %16) #36
  %19 = load ptr, ptr @stderr, align 8, !tbaa !100
  %20 = tail call i32 (ptr, ptr, ...) @fprintf(ptr noundef %19, ptr noundef nonnull @.str.9, ptr noundef %18, ptr noundef nonnull @.str.23, i32 noundef 125) #42
  %21 = load ptr, ptr @stderr, align 8, !tbaa !100
  %22 = tail call i32 @fflush(ptr noundef %21)
  invoke void @_ZN3zmq9zmq_abortEPKc(ptr noundef %18)
          to label %_ZN3zmq13scoped_lock_tD2Ev.exit unwind label %23

23:                                               ; preds = %17
  %24 = landingpad { ptr, i32 }
          catch ptr null
  %25 = extractvalue { ptr, i32 } %24, 0
  tail call void @__clang_call_terminate(ptr %25) #43
  unreachable

_ZN3zmq13scoped_lock_tD2Ev.exit:                  ; preds = %15, %17
  br i1 %.not.not, label %.loopexit, label %26

26:                                               ; preds = %_ZN3zmq13scoped_lock_tD2Ev.exit
  %27 = getelementptr inbounds nuw i8, ptr %0, i64 1640
  %28 = getelementptr inbounds nuw i8, ptr %0, i64 1648
  %29 = load ptr, ptr %28, align 8, !tbaa !133
  %30 = load ptr, ptr %27, align 8, !tbaa !115
  %31 = ptrtoint ptr %29 to i64
  %32 = ptrtoint ptr %30 to i64
  %33 = sub i64 %31, %32
  %34 = ashr exact i64 %33, 3
  %35 = icmp eq ptr %29, %30
  br i1 %35, label %36, label %.lr.ph

36:                                               ; preds = %26
  %37 = tail call ptr @__errno_location() #39
  store i32 11, ptr %37, align 4, !tbaa !17
  br label %.loopexit

.lr.ph:                                           ; preds = %26, %.lr.ph
  %.0611 = phi i64 [ %41, %.lr.ph ], [ 0, %26 ]
  %38 = load ptr, ptr %27, align 8, !tbaa !115
  %39 = getelementptr inbounds nuw ptr, ptr %38, i64 %.0611
  %40 = load ptr, ptr %39, align 8, !tbaa !3
  tail call void @_ZN3zmq6pipe_t18send_stats_to_peerEPNS_5own_tE(ptr noundef nonnull align 8 dereferenceable(328) %40, ptr noundef nonnull %0)
  %41 = add i64 %.0611, 1
  %.not8 = icmp eq i64 %41, %34
  br i1 %.not8, label %.loopexit, label %.lr.ph, !llvm.loop !217

.loopexit:                                        ; preds = %.lr.ph, %_ZN3zmq13scoped_lock_tD2Ev.exit, %36
  %.1 = phi i32 [ -1, %_ZN3zmq13scoped_lock_tD2Ev.exit ], [ -1, %36 ], [ 0, %.lr.ph ]
  ret i32 %.1
}